target datalayout = "e-m:e-p270:32:32-p271:32:32-p272:64:64-i64:64-i128:128-f80:128-n8:16:32:64-S128"
target triple = "x86_64-pc-linux-gnu"

@_ZL17nTranslationUnits = internal global i32 0, align 4
@_ZL14nTopLevelStmts = internal global i32 0, align 4
@_ZL18nRequiresExprBodys = internal global i32 0, align 4
@_ZL13nLinkageSpecs = internal global i32 0, align 4
@_ZL16nExternCContexts = internal global i32 0, align 4
@_ZL8nExports = internal global i32 0, align 4
@_ZL10nCaptureds = internal global i32 0, align 4
@_ZL7nBlocks = internal global i32 0, align 4
@_ZL14nStaticAsserts = internal global i32 0, align 4
@_ZL22nPragmaDetectMismatchs = internal global i32 0, align 4
@_ZL15nPragmaComments = internal global i32 0, align 4
@_ZL18nObjCPropertyImpls = internal global i32 0, align 4
@_ZL18nOMPThreadPrivates = internal global i32 0, align 4
@_ZL13nOMPRequiress = internal global i32 0, align 4
@_ZL13nOMPAllocates = internal global i32 0, align 4
@_ZL12nObjCMethods = internal global i32 0, align 4
@_ZL14nObjCProtocols = internal global i32 0, align 4
@_ZL15nObjCInterfaces = internal global i32 0, align 4
@_ZL20nObjCImplementations = internal global i32 0, align 4
@_ZL18nObjCCategoryImpls = internal global i32 0, align 4
@_ZL14nObjCCategorys = internal global i32 0, align 4
@_ZL11nNamespaces = internal global i32 0, align 4
@_ZL12nHLSLBuffers = internal global i32 0, align 4
@_ZL21nOMPDeclareReductions = internal global i32 0, align 4
@_ZL18nOMPDeclareMappers = internal global i32 0, align 4
@_ZL22nUnresolvedUsingValues = internal global i32 0, align 4
@_ZL23nUnnamedGlobalConstants = internal global i32 0, align 4
@_ZL21nTemplateParamObjects = internal global i32 0, align 4
@_ZL8nMSGuids = internal global i32 0, align 4
@_ZL15nIndirectFields = internal global i32 0, align 4
@_ZL14nEnumConstants = internal global i32 0, align 4
@_ZL10nFunctions = internal global i32 0, align 4
@_ZL11nCXXMethods = internal global i32 0, align 4
@_ZL15nCXXDestructors = internal global i32 0, align 4
@_ZL15nCXXConversions = internal global i32 0, align 4
@_ZL16nCXXConstructors = internal global i32 0, align 4
@_ZL19nCXXDeductionGuides = internal global i32 0, align 4
@_ZL5nVars = internal global i32 0, align 4
@_ZL27nVarTemplateSpecializations = internal global i32 0, align 4
@_ZL34nVarTemplatePartialSpecializations = internal global i32 0, align 4
@_ZL9nParmVars = internal global i32 0, align 4
@_ZL17nOMPCapturedExprs = internal global i32 0, align 4
@_ZL15nImplicitParams = internal global i32 0, align 4
@_ZL15nDecompositions = internal global i32 0, align 4
@_ZL21nNonTypeTemplateParms = internal global i32 0, align 4
@_ZL12nMSPropertys = internal global i32 0, align 4
@_ZL7nFields = internal global i32 0, align 4
@_ZL10nObjCIvars = internal global i32 0, align 4
@_ZL17nObjCAtDefsFields = internal global i32 0, align 4
@_ZL9nBindings = internal global i32 0, align 4
@_ZL13nUsingShadows = internal global i32 0, align 4
@_ZL24nConstructorUsingShadows = internal global i32 0, align 4
@_ZL11nUsingPacks = internal global i32 0, align 4
@_ZL16nUsingDirectives = internal global i32 0, align 4
@_ZL25nUnresolvedUsingIfExistss = internal global i32 0, align 4
@_ZL8nRecords = internal global i32 0, align 4
@_ZL11nCXXRecords = internal global i32 0, align 4
@_ZL29nClassTemplateSpecializations = internal global i32 0, align 4
@_ZL36nClassTemplatePartialSpecializations = internal global i32 0, align 4
@_ZL6nEnums = internal global i32 0, align 4
@_ZL25nUnresolvedUsingTypenames = internal global i32 0, align 4
@_ZL9nTypedefs = internal global i32 0, align 4
@_ZL11nTypeAliass = internal global i32 0, align 4
@_ZL15nObjCTypeParams = internal global i32 0, align 4
@_ZL18nTemplateTypeParms = internal global i32 0, align 4
@_ZL22nTemplateTemplateParms = internal global i32 0, align 4
@_ZL13nVarTemplates = internal global i32 0, align 4
@_ZL19nTypeAliasTemplates = internal global i32 0, align 4
@_ZL18nFunctionTemplates = internal global i32 0, align 4
@_ZL15nClassTemplates = internal global i32 0, align 4
@_ZL9nConcepts = internal global i32 0, align 4
@_ZL17nBuiltinTemplates = internal global i32 0, align 4
@_ZL14nObjCPropertys = internal global i32 0, align 4
@_ZL21nObjCCompatibleAliass = internal global i32 0, align 4
@_ZL16nNamespaceAliass = internal global i32 0, align 4
@_ZL7nLabels = internal global i32 0, align 4
@_ZL11nUsingEnums = internal global i32 0, align 4
@_ZL7nUsings = internal global i32 0, align 4
@_ZL27nLifetimeExtendedTemporarys = internal global i32 0, align 4
@_ZL8nImports = internal global i32 0, align 4
@_ZL31nImplicitConceptSpecializations = internal global i32 0, align 4
@_ZL16nFriendTemplates = internal global i32 0, align 4
@_ZL8nFriends = internal global i32 0, align 4
@_ZL14nFileScopeAsms = internal global i32 0, align 4
@_ZL7nEmptys = internal global i32 0, align 4
@_ZL12nAccessSpecs = internal global i32 0, align 4

; Function Attrs: mustprogress nounwind uwtable
define dso_local void @_ZN5clang4Decl3addENS0_4KindE(i32 noundef %0) #0 align 2 {
  %2 = alloca i32, align 4
  store i32 %0, ptr %2, align 4
  %3 = load i32, ptr %2, align 4
  switch i32 %3, label %262 [
    i32 0, label %4
    i32 1, label %7
    i32 2, label %10
    i32 3, label %13
    i32 4, label %16
    i32 5, label %19
    i32 6, label %22
    i32 7, label %25
    i32 8, label %28
    i32 9, label %31
    i32 10, label %34
    i32 11, label %37
    i32 12, label %40
    i32 13, label %43
    i32 14, label %46
    i32 15, label %49
    i32 16, label %52
    i32 17, label %55
    i32 18, label %58
    i32 19, label %61
    i32 20, label %64
    i32 21, label %67
    i32 22, label %70
    i32 23, label %73
    i32 24, label %76
    i32 25, label %79
    i32 26, label %82
    i32 27, label %85
    i32 28, label %88
    i32 29, label %91
    i32 30, label %94
    i32 31, label %97
    i32 32, label %100
    i32 33, label %103
    i32 34, label %106
    i32 35, label %109
    i32 36, label %112
    i32 37, label %115
    i32 38, label %118
    i32 39, label %121
    i32 40, label %124
    i32 41, label %127
    i32 42, label %130
    i32 43, label %133
    i32 44, label %136
    i32 45, label %139
    i32 46, label %142
    i32 47, label %145
    i32 48, label %148
    i32 49, label %151
    i32 50, label %154
    i32 51, label %157
    i32 52, label %160
    i32 53, label %163
    i32 54, label %166
    i32 55, label %169
    i32 56, label %172
    i32 57, label %175
    i32 58, label %178
    i32 59, label %181
    i32 60, label %184
    i32 61, label %187
    i32 62, label %190
    i32 63, label %193
    i32 64, label %196
    i32 65, label %199
    i32 66, label %202
    i32 67, label %205
    i32 68, label %208
    i32 69, label %211
    i32 70, label %214
    i32 71, label %217
    i32 72, label %220
    i32 73, label %223
    i32 74, label %226
    i32 75, label %229
    i32 76, label %232
    i32 77, label %235
    i32 78, label %238
    i32 79, label %241
    i32 80, label %244
    i32 81, label %247
    i32 82, label %250
    i32 83, label %253
    i32 84, label %256
    i32 85, label %259
  ]

4:                                                ; preds = %1
  %5 = load i32, ptr @_ZL17nTranslationUnits, align 4
  %6 = add nsw i32 %5, 1
  store i32 %6, ptr @_ZL17nTranslationUnits, align 4
  br label %262

7:                                                ; preds = %1
  %8 = load i32, ptr @_ZL14nTopLevelStmts, align 4
  %9 = add nsw i32 %8, 1
  store i32 %9, ptr @_ZL14nTopLevelStmts, align 4
  br label %262

10:                                               ; preds = %1
  %11 = load i32, ptr @_ZL18nRequiresExprBodys, align 4
  %12 = add nsw i32 %11, 1
  store i32 %12, ptr @_ZL18nRequiresExprBodys, align 4
  br label %262

13:                                               ; preds = %1
  %14 = load i32, ptr @_ZL13nLinkageSpecs, align 4
  %15 = add nsw i32 %14, 1
  store i32 %15, ptr @_ZL13nLinkageSpecs, align 4
  br label %262

16:                                               ; preds = %1
  %17 = load i32, ptr @_ZL16nExternCContexts, align 4
  %18 = add nsw i32 %17, 1
  store i32 %18, ptr @_ZL16nExternCContexts, align 4
  br label %262

19:                                               ; preds = %1
  %20 = load i32, ptr @_ZL8nExports, align 4
  %21 = add nsw i32 %20, 1
  store i32 %21, ptr @_ZL8nExports, align 4
  br label %262

22:                                               ; preds = %1
  %23 = load i32, ptr @_ZL10nCaptureds, align 4
  %24 = add nsw i32 %23, 1
  store i32 %24, ptr @_ZL10nCaptureds, align 4
  br label %262

25:                                               ; preds = %1
  %26 = load i32, ptr @_ZL7nBlocks, align 4
  %27 = add nsw i32 %26, 1
  store i32 %27, ptr @_ZL7nBlocks, align 4
  br label %262

28:                                               ; preds = %1
  %29 = load i32, ptr @_ZL14nStaticAsserts, align 4
  %30 = add nsw i32 %29, 1
  store i32 %30, ptr @_ZL14nStaticAsserts, align 4
  br label %262

31:                                               ; preds = %1
  %32 = load i32, ptr @_ZL22nPragmaDetectMismatchs, align 4
  %33 = add nsw i32 %32, 1
  store i32 %33, ptr @_ZL22nPragmaDetectMismatchs, align 4
  br label %262

34:                                               ; preds = %1
  %35 = load i32, ptr @_ZL15nPragmaComments, align 4
  %36 = add nsw i32 %35, 1
  store i32 %36, ptr @_ZL15nPragmaComments, align 4
  br label %262

37:                                               ; preds = %1
  %38 = load i32, ptr @_ZL18nObjCPropertyImpls, align 4
  %39 = add nsw i32 %38, 1
  store i32 %39, ptr @_ZL18nObjCPropertyImpls, align 4
  br label %262

40:                                               ; preds = %1
  %41 = load i32, ptr @_ZL18nOMPThreadPrivates, align 4
  %42 = add nsw i32 %41, 1
  store i32 %42, ptr @_ZL18nOMPThreadPrivates, align 4
  br label %262

43:                                               ; preds = %1
  %44 = load i32, ptr @_ZL13nOMPRequiress, align 4
  %45 = add nsw i32 %44, 1
  store i32 %45, ptr @_ZL13nOMPRequiress, align 4
  br label %262

46:                                               ; preds = %1
  %47 = load i32, ptr @_ZL13nOMPAllocates, align 4
  %48 = add nsw i32 %47, 1
  store i32 %48, ptr @_ZL13nOMPAllocates, align 4
  br label %262

49:                                               ; preds = %1
  %50 = load i32, ptr @_ZL12nObjCMethods, align 4
  %51 = add nsw i32 %50, 1
  store i32 %51, ptr @_ZL12nObjCMethods, align 4
  br label %262

52:                                               ; preds = %1
  %53 = load i32, ptr @_ZL14nObjCProtocols, align 4
  %54 = add nsw i32 %53, 1
  store i32 %54, ptr @_ZL14nObjCProtocols, align 4
  br label %262

55:                                               ; preds = %1
  %56 = load i32, ptr @_ZL15nObjCInterfaces, align 4
  %57 = add nsw i32 %56, 1
  store i32 %57, ptr @_ZL15nObjCInterfaces, align 4
  br label %262

58:                                               ; preds = %1
  %59 = load i32, ptr @_ZL20nObjCImplementations, align 4
  %60 = add nsw i32 %59, 1
  store i32 %60, ptr @_ZL20nObjCImplementations, align 4
  br label %262

61:                                               ; preds = %1
  %62 = load i32, ptr @_ZL18nObjCCategoryImpls, align 4
  %63 = add nsw i32 %62, 1
  store i32 %63, ptr @_ZL18nObjCCategoryImpls, align 4
  br label %262

64:                                               ; preds = %1
  %65 = load i32, ptr @_ZL14nObjCCategorys, align 4
  %66 = add nsw i32 %65, 1
  store i32 %66, ptr @_ZL14nObjCCategorys, align 4
  br label %262

67:                                               ; preds = %1
  %68 = load i32, ptr @_ZL11nNamespaces, align 4
  %69 = add nsw i32 %68, 1
  store i32 %69, ptr @_ZL11nNamespaces, align 4
  br label %262

70:                                               ; preds = %1
  %71 = load i32, ptr @_ZL12nHLSLBuffers, align 4
  %72 = add nsw i32 %71, 1
  store i32 %72, ptr @_ZL12nHLSLBuffers, align 4
  br label %262

73:                                               ; preds = %1
  %74 = load i32, ptr @_ZL21nOMPDeclareReductions, align 4
  %75 = add nsw i32 %74, 1
  store i32 %75, ptr @_ZL21nOMPDeclareReductions, align 4
  br label %262

76:                                               ; preds = %1
  %77 = load i32, ptr @_ZL18nOMPDeclareMappers, align 4
  %78 = add nsw i32 %77, 1
  store i32 %78, ptr @_ZL18nOMPDeclareMappers, align 4
  br label %262

79:                                               ; preds = %1
  %80 = load i32, ptr @_ZL22nUnresolvedUsingValues, align 4
  %81 = add nsw i32 %80, 1
  store i32 %81, ptr @_ZL22nUnresolvedUsingValues, align 4
  br label %262

82:                                               ; preds = %1
  %83 = load i32, ptr @_ZL23nUnnamedGlobalConstants, align 4
  %84 = add nsw i32 %83, 1
  store i32 %84, ptr @_ZL23nUnnamedGlobalConstants, align 4
  br label %262

85:                                               ; preds = %1
  %86 = load i32, ptr @_ZL21nTemplateParamObjects, align 4
  %87 = add nsw i32 %86, 1
  store i32 %87, ptr @_ZL21nTemplateParamObjects, align 4
  br label %262

88:                                               ; preds = %1
  %89 = load i32, ptr @_ZL8nMSGuids, align 4
  %90 = add nsw i32 %89, 1
  store i32 %90, ptr @_ZL8nMSGuids, align 4
  br label %262

91:                                               ; preds = %1
  %92 = load i32, ptr @_ZL15nIndirectFields, align 4
  %93 = add nsw i32 %92, 1
  store i32 %93, ptr @_ZL15nIndirectFields, align 4
  br label %262

94:                                               ; preds = %1
  %95 = load i32, ptr @_ZL14nEnumConstants, align 4
  %96 = add nsw i32 %95, 1
  store i32 %96, ptr @_ZL14nEnumConstants, align 4
  br label %262

97:                                               ; preds = %1
  %98 = load i32, ptr @_ZL10nFunctions, align 4
  %99 = add nsw i32 %98, 1
  store i32 %99, ptr @_ZL10nFunctions, align 4
  br label %262

100:                                              ; preds = %1
  %101 = load i32, ptr @_ZL11nCXXMethods, align 4
  %102 = add nsw i32 %101, 1
  store i32 %102, ptr @_ZL11nCXXMethods, align 4
  br label %262

103:                                              ; preds = %1
  %104 = load i32, ptr @_ZL15nCXXDestructors, align 4
  %105 = add nsw i32 %104, 1
  store i32 %105, ptr @_ZL15nCXXDestructors, align 4
  br label %262

106:                                              ; preds = %1
  %107 = load i32, ptr @_ZL15nCXXConversions, align 4
  %108 = add nsw i32 %107, 1
  store i32 %108, ptr @_ZL15nCXXConversions, align 4
  br label %262

109:                                              ; preds = %1
  %110 = load i32, ptr @_ZL16nCXXConstructors, align 4
  %111 = add nsw i32 %110, 1
  store i32 %111, ptr @_ZL16nCXXConstructors, align 4
  br label %262

112:                                              ; preds = %1
  %113 = load i32, ptr @_ZL19nCXXDeductionGuides, align 4
  %114 = add nsw i32 %113, 1
  store i32 %114, ptr @_ZL19nCXXDeductionGuides, align 4
  br label %262

115:                                              ; preds = %1
  %116 = load i32, ptr @_ZL5nVars, align 4
  %117 = add nsw i32 %116, 1
  store i32 %117, ptr @_ZL5nVars, align 4
  br label %262

118:                                              ; preds = %1
  %119 = load i32, ptr @_ZL27nVarTemplateSpecializations, align 4
  %120 = add nsw i32 %119, 1
  store i32 %120, ptr @_ZL27nVarTemplateSpecializations, align 4
  br label %262

121:                                              ; preds = %1
  %122 = load i32, ptr @_ZL34nVarTemplatePartialSpecializations, align 4
  %123 = add nsw i32 %122, 1
  store i32 %123, ptr @_ZL34nVarTemplatePartialSpecializations, align 4
  br label %262

124:                                              ; preds = %1
  %125 = load i32, ptr @_ZL9nParmVars, align 4
  %126 = add nsw i32 %125, 1
  store i32 %126, ptr @_ZL9nParmVars, align 4
  br label %262

127:                                              ; preds = %1
  %128 = load i32, ptr @_ZL17nOMPCapturedExprs, align 4
  %129 = add nsw i32 %128, 1
  store i32 %129, ptr @_ZL17nOMPCapturedExprs, align 4
  br label %262

130:                                              ; preds = %1
  %131 = load i32, ptr @_ZL15nImplicitParams, align 4
  %132 = add nsw i32 %131, 1
  store i32 %132, ptr @_ZL15nImplicitParams, align 4
  br label %262

133:                                              ; preds = %1
  %134 = load i32, ptr @_ZL15nDecompositions, align 4
  %135 = add nsw i32 %134, 1
  store i32 %135, ptr @_ZL15nDecompositions, align 4
  br label %262

136:                                              ; preds = %1
  %137 = load i32, ptr @_ZL21nNonTypeTemplateParms, align 4
  %138 = add nsw i32 %137, 1
  store i32 %138, ptr @_ZL21nNonTypeTemplateParms, align 4
  br label %262

139:                                              ; preds = %1
  %140 = load i32, ptr @_ZL12nMSPropertys, align 4
  %141 = add nsw i32 %140, 1
  store i32 %141, ptr @_ZL12nMSPropertys, align 4
  br label %262

142:                                              ; preds = %1
  %143 = load i32, ptr @_ZL7nFields, align 4
  %144 = add nsw i32 %143, 1
  store i32 %144, ptr @_ZL7nFields, align 4
  br label %262

145:                                              ; preds = %1
  %146 = load i32, ptr @_ZL10nObjCIvars, align 4
  %147 = add nsw i32 %146, 1
  store i32 %147, ptr @_ZL10nObjCIvars, align 4
  br label %262

148:                                              ; preds = %1
  %149 = load i32, ptr @_ZL17nObjCAtDefsFields, align 4
  %150 = add nsw i32 %149, 1
  store i32 %150, ptr @_ZL17nObjCAtDefsFields, align 4
  br label %262

151:                                              ; preds = %1
  %152 = load i32, ptr @_ZL9nBindings, align 4
  %153 = add nsw i32 %152, 1
  store i32 %153, ptr @_ZL9nBindings, align 4
  br label %262

154:                                              ; preds = %1
  %155 = load i32, ptr @_ZL13nUsingShadows, align 4
  %156 = add nsw i32 %155, 1
  store i32 %156, ptr @_ZL13nUsingShadows, align 4
  br label %262

157:                                              ; preds = %1
  %158 = load i32, ptr @_ZL24nConstructorUsingShadows, align 4
  %159 = add nsw i32 %158, 1
  store i32 %159, ptr @_ZL24nConstructorUsingShadows, align 4
  br label %262

160:                                              ; preds = %1
  %161 = load i32, ptr @_ZL11nUsingPacks, align 4
  %162 = add nsw i32 %161, 1
  store i32 %162, ptr @_ZL11nUsingPacks, align 4
  br label %262

163:                                              ; preds = %1
  %164 = load i32, ptr @_ZL16nUsingDirectives, align 4
  %165 = add nsw i32 %164, 1
  store i32 %165, ptr @_ZL16nUsingDirectives, align 4
  br label %262

166:                                              ; preds = %1
  %167 = load i32, ptr @_ZL25nUnresolvedUsingIfExistss, align 4
  %168 = add nsw i32 %167, 1
  store i32 %168, ptr @_ZL25nUnresolvedUsingIfExistss, align 4
  br label %262

169:                                              ; preds = %1
  %170 = load i32, ptr @_ZL8nRecords, align 4
  %171 = add nsw i32 %170, 1
  store i32 %171, ptr @_ZL8nRecords, align 4
  br label %262

172:                                              ; preds = %1
  %173 = load i32, ptr @_ZL11nCXXRecords, align 4
  %174 = add nsw i32 %173, 1
  store i32 %174, ptr @_ZL11nCXXRecords, align 4
  br label %262

175:                                              ; preds = %1
  %176 = load i32, ptr @_ZL29nClassTemplateSpecializations, align 4
  %177 = add nsw i32 %176, 1
  store i32 %177, ptr @_ZL29nClassTemplateSpecializations, align 4
  br label %262

178:                                              ; preds = %1
  %179 = load i32, ptr @_ZL36nClassTemplatePartialSpecializations, align 4
  %180 = add nsw i32 %179, 1
  store i32 %180, ptr @_ZL36nClassTemplatePartialSpecializations, align 4
  br label %262

181:                                              ; preds = %1
  %182 = load i32, ptr @_ZL6nEnums, align 4
  %183 = add nsw i32 %182, 1
  store i32 %183, ptr @_ZL6nEnums, align 4
  br label %262

184:                                              ; preds = %1
  %185 = load i32, ptr @_ZL25nUnresolvedUsingTypenames, align 4
  %186 = add nsw i32 %185, 1
  store i32 %186, ptr @_ZL25nUnresolvedUsingTypenames, align 4
  br label %262

187:                                              ; preds = %1
  %188 = load i32, ptr @_ZL9nTypedefs, align 4
  %189 = add nsw i32 %188, 1
  store i32 %189, ptr @_ZL9nTypedefs, align 4
  br label %262

190:                                              ; preds = %1
  %191 = load i32, ptr @_ZL11nTypeAliass, align 4
  %192 = add nsw i32 %191, 1
  store i32 %192, ptr @_ZL11nTypeAliass, align 4
  br label %262

193:                                              ; preds = %1
  %194 = load i32, ptr @_ZL15nObjCTypeParams, align 4
  %195 = add nsw i32 %194, 1
  store i32 %195, ptr @_ZL15nObjCTypeParams, align 4
  br label %262

196:                                              ; preds = %1
  %197 = load i32, ptr @_ZL18nTemplateTypeParms, align 4
  %198 = add nsw i32 %197, 1
  store i32 %198, ptr @_ZL18nTemplateTypeParms, align 4
  br label %262

199:                                              ; preds = %1
  %200 = load i32, ptr @_ZL22nTemplateTemplateParms, align 4
  %201 = add nsw i32 %200, 1
  store i32 %201, ptr @_ZL22nTemplateTemplateParms, align 4
  br label %262

202:                                              ; preds = %1
  %203 = load i32, ptr @_ZL13nVarTemplates, align 4
  %204 = add nsw i32 %203, 1
  store i32 %204, ptr @_ZL13nVarTemplates, align 4
  br label %262

205:                                              ; preds = %1
  %206 = load i32, ptr @_ZL19nTypeAliasTemplates, align 4
  %207 = add nsw i32 %206, 1
  store i32 %207, ptr @_ZL19nTypeAliasTemplates, align 4
  br label %262

208:                                              ; preds = %1
  %209 = load i32, ptr @_ZL18nFunctionTemplates, align 4
  %210 = add nsw i32 %209, 1
  store i32 %210, ptr @_ZL18nFunctionTemplates, align 4
  br label %262

211:                                              ; preds = %1
  %212 = load i32, ptr @_ZL15nClassTemplates, align 4
  %213 = add nsw i32 %212, 1
  store i32 %213, ptr @_ZL15nClassTemplates, align 4
  br label %262

214:                                              ; preds = %1
  %215 = load i32, ptr @_ZL9nConcepts, align 4
  %216 = add nsw i32 %215, 1
  store i32 %216, ptr @_ZL9nConcepts, align 4
  br label %262

217:                                              ; preds = %1
  %218 = load i32, ptr @_ZL17nBuiltinTemplates, align 4
  %219 = add nsw i32 %218, 1
  store i32 %219, ptr @_ZL17nBuiltinTemplates, align 4
  br label %262

220:                                              ; preds = %1
  %221 = load i32, ptr @_ZL14nObjCPropertys, align 4
  %222 = add nsw i32 %221, 1
  store i32 %222, ptr @_ZL14nObjCPropertys, align 4
  br label %262

223:                                              ; preds = %1
  %224 = load i32, ptr @_ZL21nObjCCompatibleAliass, align 4
  %225 = add nsw i32 %224, 1
  store i32 %225, ptr @_ZL21nObjCCompatibleAliass, align 4
  br label %262

226:                                              ; preds = %1
  %227 = load i32, ptr @_ZL16nNamespaceAliass, align 4
  %228 = add nsw i32 %227, 1
  store i32 %228, ptr @_ZL16nNamespaceAliass, align 4
  br label %262

229:                                              ; preds = %1
  %230 = load i32, ptr @_ZL7nLabels, align 4
  %231 = add nsw i32 %230, 1
  store i32 %231, ptr @_ZL7nLabels, align 4
  br label %262

232:                                              ; preds = %1
  %233 = load i32, ptr @_ZL11nUsingEnums, align 4
  %234 = add nsw i32 %233, 1
  store i32 %234, ptr @_ZL11nUsingEnums, align 4
  br label %262

235:                                              ; preds = %1
  %236 = load i32, ptr @_ZL7nUsings, align 4
  %237 = add nsw i32 %236, 1
  store i32 %237, ptr @_ZL7nUsings, align 4
  br label %262

238:                                              ; preds = %1
  %239 = load i32, ptr @_ZL27nLifetimeExtendedTemporarys, align 4
  %240 = add nsw i32 %239, 1
  store i32 %240, ptr @_ZL27nLifetimeExtendedTemporarys, align 4
  br label %262

241:                                              ; preds = %1
  %242 = load i32, ptr @_ZL8nImports, align 4
  %243 = add nsw i32 %242, 1
  store i32 %243, ptr @_ZL8nImports, align 4
  br label %262

244:                                              ; preds = %1
  %245 = load i32, ptr @_ZL31nImplicitConceptSpecializations, align 4
  %246 = add nsw i32 %245, 1
  store i32 %246, ptr @_ZL31nImplicitConceptSpecializations, align 4
  br label %262

247:                                              ; preds = %1
  %248 = load i32, ptr @_ZL16nFriendTemplates, align 4
  %249 = add nsw i32 %248, 1
  store i32 %249, ptr @_ZL16nFriendTemplates, align 4
  br label %262

250:                                              ; preds = %1
  %251 = load i32, ptr @_ZL8nFriends, align 4
  %252 = add nsw i32 %251, 1
  store i32 %252, ptr @_ZL8nFriends, align 4
  br label %262

253:                                              ; preds = %1
  %254 = load i32, ptr @_ZL14nFileScopeAsms, align 4
  %255 = add nsw i32 %254, 1
  store i32 %255, ptr @_ZL14nFileScopeAsms, align 4
  br label %262

256:                                              ; preds = %1
  %257 = load i32, ptr @_ZL7nEmptys, align 4
  %258 = add nsw i32 %257, 1
  store i32 %258, ptr @_ZL7nEmptys, align 4
  br label %262

259:                                              ; preds = %1
  %260 = load i32, ptr @_ZL12nAccessSpecs, align 4
  %261 = add nsw i32 %260, 1
  store i32 %261, ptr @_ZL12nAccessSpecs, align 4
  br label %262

262:                                              ; preds = %259, %256, %253, %250, %247, %244, %241, %238, %235, %232, %229, %226, %223, %220, %217, %214, %211, %208, %205, %202, %199, %196, %193, %190, %187, %184, %181, %178, %175, %172, %169, %166, %163, %160, %157, %154, %151, %148, %145, %142, %139, %136, %133, %130, %127, %124, %121, %118, %115, %112, %109, %106, %103, %100, %97, %94, %91, %88, %85, %82, %79, %76, %73, %70, %67, %64, %61, %58, %55, %52, %49, %46, %43, %40, %37, %34, %31, %28, %25, %22, %19, %16, %13, %10, %7, %4, %1
  ret void
}