; Function Attrs: mustprogress nofree norecurse nosync nounwind willreturn memory(readwrite, inaccessiblemem: none) uwtable
define dso_local void @_ZN5clang4Decl3addENS0_4KindE(i32 noundef %0) local_unnamed_addr #7 align 2 {
  %2 = icmp ult i32 %0, 86
  br i1 %2, label %switch.lookup, label %6

switch.lookup:                                    ; preds = %1
  %3 = zext nneg i32 %0 to i64
  %switch.gep = getelementptr inbounds [86 x ptr], ptr @switch.table._ZN5clang4Decl3addENS0_4KindE, i64 0, i64 %3
  %switch.load = load ptr, ptr %switch.gep, align 8
  %4 = load i32, ptr %switch.load, align 4
  %5 = add nsw i32 %4, 1
  store i32 %5, ptr %switch.load, align 4
  br label %6

6:                                                ; preds = %1, %switch.lookup
  ret void
}